target datalayout = "e-m:e-p270:32:32-p271:32:32-p272:64:64-i64:64-i128:128-f80:128-n8:16:32:64-S128"
target triple = "x86_64-pc-linux-gnu"

%struct._object = type { %union.anon, ptr }
%union.anon = type { i64 }
%struct.PyVarObject = type { %struct._object, i64 }
%struct.array_state = type { ptr, ptr, ptr, ptr, ptr, ptr, ptr }
%struct.arraydescr = type { i8, i32, ptr, ptr, ptr, ptr, i32, i32 }
%struct.PyModuleObject = type { %struct._object, ptr, ptr, ptr, ptr, ptr }
%struct.arrayobject = type { %struct.PyVarObject, ptr, i64, ptr, ptr, i64 }

; Function Attrs: inlinehint nounwind uwtable
define internal ptr @_PyModule_GetState(ptr noundef %0) #3 {
  %2 = alloca ptr, align 8
  store ptr %0, ptr %2, align 8, !tbaa !3
  %3 = load ptr, ptr %2, align 8, !tbaa !3
  %4 = getelementptr inbounds nuw %struct.PyModuleObject, ptr %3, i32 0, i32 3
  %5 = load ptr, ptr %4, align 8, !tbaa !65
  ret ptr %5
}

; Function Attrs: nounwind uwtable
define internal ptr @get_array_state(ptr noundef %0) #0 {
  %2 = alloca ptr, align 8
  store ptr %0, ptr %2, align 8, !tbaa !3
  %3 = load ptr, ptr %2, align 8, !tbaa !3
  %4 = call ptr @_PyModule_GetState(ptr noundef %3)
  ret ptr %4
}

; Function Attrs: inlinehint nounwind uwtable
define internal ptr @_Py_TYPE(ptr noundef %0) #3 {
  %2 = alloca ptr, align 8
  store ptr %0, ptr %2, align 8, !tbaa !3
  %3 = load ptr, ptr %2, align 8, !tbaa !3
  %4 = getelementptr inbounds nuw %struct._object, ptr %3, i32 0, i32 1
  %5 = load ptr, ptr %4, align 8, !tbaa !32
  ret ptr %5
}

; Function Attrs: nounwind uwtable
define internal ptr @array_slice(ptr noundef %0, i64 noundef %1, i64 noundef %2) #0 {
  %4 = alloca ptr, align 8
  %5 = alloca ptr, align 8
  %6 = alloca i64, align 8
  %7 = alloca i64, align 8
  %8 = alloca ptr, align 8
  %9 = alloca ptr, align 8
  %10 = alloca i32, align 4
  store ptr %0, ptr %5, align 8, !tbaa !68
  store i64 %1, ptr %6, align 8, !tbaa !21
  store i64 %2, ptr %7, align 8, !tbaa !21
  call void @llvm.lifetime.start.p0(i64 8, ptr %8) #8
  %11 = load ptr, ptr %5, align 8, !tbaa !68
  %12 = call ptr @_Py_TYPE(ptr noundef %11)
  %13 = call ptr @PyType_GetModuleByDef(ptr noundef %12, ptr noundef @arraymodule)
  %14 = call ptr @get_array_state(ptr noundef %13)
  store ptr %14, ptr %8, align 8, !tbaa !8
  call void @llvm.lifetime.start.p0(i64 8, ptr %9) #8
  %15 = load i64, ptr %6, align 8, !tbaa !21
  %16 = icmp slt i64 %15, 0
  br i1 %16, label %17, label %18

17:                                               ; preds = %3
  store i64 0, ptr %6, align 8, !tbaa !21
  br label %27

18:                                               ; preds = %3
  %19 = load i64, ptr %6, align 8, !tbaa !21
  %20 = load ptr, ptr %5, align 8, !tbaa !68
  %21 = call i64 @Py_SIZE(ptr noundef %20)
  %22 = icmp sgt i64 %19, %21
  br i1 %22, label %23, label %26

23:                                               ; preds = %18
  %24 = load ptr, ptr %5, align 8, !tbaa !68
  %25 = call i64 @Py_SIZE(ptr noundef %24)
  store i64 %25, ptr %6, align 8, !tbaa !21
  br label %26

26:                                               ; preds = %23, %18
  br label %27

27:                                               ; preds = %26, %17
  %28 = load i64, ptr %7, align 8, !tbaa !21
  %29 = icmp slt i64 %28, 0
  br i1 %29, label %30, label %31

30:                                               ; preds = %27
  store i64 0, ptr %7, align 8, !tbaa !21
  br label %31

31:                                               ; preds = %30, %27
  %32 = load i64, ptr %7, align 8, !tbaa !21
  %33 = load i64, ptr %6, align 8, !tbaa !21
  %34 = icmp slt i64 %32, %33
  br i1 %34, label %35, label %37

35:                                               ; preds = %31
  %36 = load i64, ptr %6, align 8, !tbaa !21
  store i64 %36, ptr %7, align 8, !tbaa !21
  br label %46

37:                                               ; preds = %31
  %38 = load i64, ptr %7, align 8, !tbaa !21
  %39 = load ptr, ptr %5, align 8, !tbaa !68
  %40 = call i64 @Py_SIZE(ptr noundef %39)
  %41 = icmp sgt i64 %38, %40
  br i1 %41, label %42, label %45

42:                                               ; preds = %37
  %43 = load ptr, ptr %5, align 8, !tbaa !68
  %44 = call i64 @Py_SIZE(ptr noundef %43)
  store i64 %44, ptr %7, align 8, !tbaa !21
  br label %45

45:                                               ; preds = %42, %37
  br label %46

46:                                               ; preds = %45, %35
  %47 = load ptr, ptr %8, align 8, !tbaa !8
  %48 = getelementptr inbounds nuw %struct.array_state, ptr %47, i32 0, i32 0
  %49 = load ptr, ptr %48, align 8, !tbaa !9
  %50 = load i64, ptr %7, align 8, !tbaa !21
  %51 = load i64, ptr %6, align 8, !tbaa !21
  %52 = sub i64 %50, %51
  %53 = load ptr, ptr %5, align 8, !tbaa !68
  %54 = getelementptr inbounds nuw %struct.arrayobject, ptr %53, i32 0, i32 3
  %55 = load ptr, ptr %54, align 8, !tbaa !99
  %56 = call ptr @newarrayobject(ptr noundef %49, i64 noundef %52, ptr noundef %55)
  store ptr %56, ptr %9, align 8, !tbaa !68
  %57 = load ptr, ptr %9, align 8, !tbaa !68
  %58 = icmp eq ptr %57, null
  br i1 %58, label %59, label %60

59:                                               ; preds = %46
  store ptr null, ptr %4, align 8
  store i32 1, ptr %10, align 4
  br label %92

60:                                               ; preds = %46
  %61 = load i64, ptr %7, align 8, !tbaa !21
  %62 = load i64, ptr %6, align 8, !tbaa !21
  %63 = icmp sgt i64 %61, %62
  br i1 %63, label %64, label %90

64:                                               ; preds = %60
  %65 = load ptr, ptr %9, align 8, !tbaa !68
  %66 = getelementptr inbounds nuw %struct.arrayobject, ptr %65, i32 0, i32 1
  %67 = load ptr, ptr %66, align 8, !tbaa !70
  %68 = load ptr, ptr %5, align 8, !tbaa !68
  %69 = getelementptr inbounds nuw %struct.arrayobject, ptr %68, i32 0, i32 1
  %70 = load ptr, ptr %69, align 8, !tbaa !70
  %71 = load i64, ptr %6, align 8, !tbaa !21
  %72 = load ptr, ptr %5, align 8, !tbaa !68
  %73 = getelementptr inbounds nuw %struct.arrayobject, ptr %72, i32 0, i32 3
  %74 = load ptr, ptr %73, align 8, !tbaa !99
  %75 = getelementptr inbounds nuw %struct.arraydescr, ptr %74, i32 0, i32 1
  %76 = load i32, ptr %75, align 4, !tbaa !52
  %77 = sext i32 %76 to i64
  %78 = mul i64 %71, %77
  %79 = getelementptr i8, ptr %70, i64 %78
  %80 = load i64, ptr %7, align 8, !tbaa !21
  %81 = load i64, ptr %6, align 8, !tbaa !21
  %82 = sub i64 %80, %81
  %83 = load ptr, ptr %5, align 8, !tbaa !68
  %84 = getelementptr inbounds nuw %struct.arrayobject, ptr %83, i32 0, i32 3
  %85 = load ptr, ptr %84, align 8, !tbaa !99
  %86 = getelementptr inbounds nuw %struct.arraydescr, ptr %85, i32 0, i32 1
  %87 = load i32, ptr %86, align 4, !tbaa !52
  %88 = sext i32 %87 to i64
  %89 = mul i64 %82, %88
  call void @llvm.memcpy.p0.p0.i64(ptr align 1 %67, ptr align 1 %79, i64 %89, i1 false)
  br label %90

90:                                               ; preds = %64, %60
  %91 = load ptr, ptr %9, align 8, !tbaa !68
  store ptr %91, ptr %4, align 8
  store i32 1, ptr %10, align 4
  br label %92

92:                                               ; preds = %90, %59
  call void @llvm.lifetime.end.p0(i64 8, ptr %9) #8
  call void @llvm.lifetime.end.p0(i64 8, ptr %8) #8
  %93 = load ptr, ptr %4, align 8
  ret ptr %93
}

; Function Attrs: inlinehint nounwind uwtable
define internal i64 @Py_SIZE(ptr noundef %0) #3 {
  %2 = alloca ptr, align 8
  store ptr %0, ptr %2, align 8, !tbaa !3
  %3 = load ptr, ptr %2, align 8, !tbaa !3
  %4 = getelementptr inbounds nuw %struct.PyVarObject, ptr %3, i32 0, i32 1
  %5 = load i64, ptr %4, align 8, !tbaa !62
  ret i64 %5
}

; Function Attrs: nounwind uwtable
define internal ptr @array_array___copy___impl(ptr noundef %0) #0 {
  %2 = alloca ptr, align 8
  store ptr %0, ptr %2, align 8, !tbaa !68
  %3 = load ptr, ptr %2, align 8, !tbaa !68
  %4 = load ptr, ptr %2, align 8, !tbaa !68
  %5 = call i64 @Py_SIZE(ptr noundef %4)
  %6 = call ptr @array_slice(ptr noundef %3, i64 noundef 0, i64 noundef %5)
  ret ptr %6
}

; Function Attrs: nounwind uwtable
define internal ptr @array_array___copy__(ptr noundef %0, ptr noundef %1) #0 {
  %3 = alloca ptr, align 8
  %4 = alloca ptr, align 8
  store ptr %0, ptr %3, align 8, !tbaa !3
  store ptr %1, ptr %4, align 8, !tbaa !3
  %5 = load ptr, ptr %3, align 8, !tbaa !3
  %6 = call ptr @array_array___copy___impl(ptr noundef %5)
  ret ptr %6
}