; Function Attrs: nounwind uwtable
define internal ptr @array_array___copy__(ptr noundef readonly captures(none) %0, ptr readnone captures(none) %1) #0 {
  %3 = getelementptr i8, ptr %0, i64 16
  %.val.i = load i64, ptr %3, align 8, !tbaa !40
  %4 = getelementptr i8, ptr %0, i64 8
  %.val31.i.i = load ptr, ptr %4, align 8, !tbaa !19
  %5 = tail call ptr @PyType_GetModuleByDef(ptr noundef %.val31.i.i, ptr noundef nonnull @arraymodule) #11
  %6 = getelementptr i8, ptr %5, i64 32
  %.val.i.i = load ptr, ptr %6, align 8, !tbaa !3
  %.val35.i.i = load i64, ptr %3, align 8, !tbaa !40
  %spec.store.select.i.i = tail call i64 @llvm.smax.i64(i64 %.val.i, i64 0)
  %.val35..i.i = tail call i64 @llvm.smin.i64(i64 %.val35.i.i, i64 0)
  %.028.i.i = tail call i64 @llvm.smin.i64(i64 %spec.store.select.i.i, i64 %.val35.i.i)
  %7 = load ptr, ptr %.val.i.i, align 8, !tbaa !12
  %8 = sub i64 %.028.i.i, %.val35..i.i
  %9 = getelementptr inbounds nuw i8, ptr %0, i64 40
  %10 = load ptr, ptr %9, align 8, !tbaa !76
  %11 = tail call fastcc ptr @newarrayobject(ptr noundef %7, i64 noundef %8, ptr noundef %10)
  %12 = icmp ne ptr %11, null
  %13 = icmp sgt i64 %.028.i.i, 0
  %or.cond.i.i = and i1 %13, %12
  br i1 %or.cond.i.i, label %14, label %array_array___copy___impl.exit

14:                                               ; preds = %2
  %15 = getelementptr inbounds nuw i8, ptr %11, i64 24
  %16 = load ptr, ptr %15, align 8, !tbaa !53
  %17 = getelementptr inbounds nuw i8, ptr %0, i64 24
  %18 = load ptr, ptr %17, align 8, !tbaa !53
  %19 = load ptr, ptr %9, align 8, !tbaa !76
  %20 = getelementptr inbounds nuw i8, ptr %19, i64 4
  %21 = load i32, ptr %20, align 4, !tbaa !49
  %22 = sext i32 %21 to i64
  %23 = mul i64 %.val35..i.i, %22
  %24 = getelementptr i8, ptr %18, i64 %23
  %25 = mul i64 %8, %22
  tail call void @llvm.memcpy.p0.p0.i64(ptr align 1 %16, ptr align 1 %24, i64 %25, i1 false)
  br label %array_array___copy___impl.exit

array_array___copy___impl.exit:                   ; preds = %2, %14
  ret ptr %11
}